(dp1
S"'F13'"
p2
(dp3
S'kernel'
p4
S'rbf'
p5
sS'C'
I10
sS'gamma'
p6
F0.01
ssS"'F15'"
p7
(dp8
g4
g5
sS'C'
I10
sg6
F0.01
ssS"'F07'"
p9
(dp10
g4
g5
sS'C'
I10
sg6
F0.01
ssS"'F04'"
p11
(dp12
g4
g5
sS'C'
I10
sg6
F0.01
ssS"'F02'"
p13
(dp14
g4
g5
sS'C'
I100
sg6
F0.001
ssS"'F17'"
p15
(dp16
g4
g5
sS'C'
I100
sg6
F0.001
ss.