(dp1
S"'F27'"
p2
(dp3
S'kernel'
p4
S'rbf'
p5
sS'C'
I1000
sS'gamma'
p6
F0.0001
ssS"'F09'"
p7
(dp8
g4
g5
sS'C'
I1000
sg6
F0.0001
ssS"'F06'"
p9
(dp10
g4
g5
sS'C'
I100
sg6
F0.001
ssS"'F07'"
p11
(dp12
g4
g5
sS'C'
I100
sg6
F0.001
ssS"'F29'"
p13
(dp14
g4
g5
sS'C'
I1000
sg6
F0.0001
ssS"'F04'"
p15
(dp16
g4
g5
sS'C'
I1000
sg6
F0.0001
ssS"'F02'"
p17
(dp18
g4
g5
sS'C'
I100
sg6
F0.001
ssS"'F22'"
p19
(dp20
g4
g5
sS'C'
I1000
sg6
F0.0001
ssS"'F34'"
p21
(dp22
g4
g5
sS'C'
I1000
sg6
F0.0001
ssS"'F33'"
p23
(dp24
g4
g5
sS'C'
I1000
sg6
F0.0001
ss.