(dp1
S"'F18'"
p2
(dp3
S'kernel'
p4
S'rbf'
p5
sS'C'
I100
sS'gamma'
p6
F0.10000000000000001
ssS"'F13'"
p7
(dp8
g4
g5
sS'C'
I100
sg6
F0.10000000000000001
ssS"'F32'"
p9
(dp10
g4
g5
sS'C'
I10
sg6
F0.10000000000000001
ssS"'F40'"
p11
(dp12
g4
g5
sS'C'
I10
sg6
F0.10000000000000001
ssS"'F05'"
p13
(dp14
g4
g5
sS'C'
I100
sg6
F0.10000000000000001
ssS"'F38'"
p15
(dp16
g4
g5
sS'C'
I100
sg6
F0.01
ssS"'F20'"
p17
(dp18
g4
g5
sS'C'
I100
sg6
F0.01
ssS"'F02'"
p19
(dp20
g4
g5
sS'C'
I100
sg6
F0.10000000000000001
ssS"'F24'"
p21
(dp22
g4
g5
sS'C'
I100
sg6
F0.10000000000000001
ss.